target datalayout = "e-m:e-p270:32:32-p271:32:32-p272:64:64-i64:64-i128:128-f80:128-n8:16:32:64-S128"
target triple = "x86_64-pc-linux-gnu"

%class.QAbstractItemModel = type { %class.QObject }
%class.QObject = type { ptr, %class.QScopedPointer }
%class.QScopedPointer = type { ptr }
%class.QString = type { %struct.QArrayDataPointer }
%struct.QArrayDataPointer = type { ptr, ptr, i64 }
%class.QList = type { %struct.QArrayDataPointer.4 }
%struct.QArrayDataPointer.4 = type { ptr, ptr, i64 }
%class.ProfileModel = type { %class.QAbstractTableModel, i32, i32, %class.QList.5, %class.QList, %class.QString, i8, i8, i32 }
%class.QAbstractTableModel = type { %class.QAbstractItemModel }
%class.QList.5 = type { %struct.QArrayDataPointer.8 }
%struct.QArrayDataPointer.8 = type { ptr, ptr, i64 }
%struct._GList = type { ptr, ptr, ptr }
%struct.profile_def = type { ptr, ptr, i32, i8, i8, i8, i8, ptr }

; Function Attrs: mustprogress null_pointer_is_valid sspstrong uwtable
define noundef zeroext i1 @_ZNK12ProfileModel14changesPendingEv(ptr noundef align 8 dereferenceable_or_null(104) %0) #0 align 2 {
  %2 = alloca i1, align 1
  %3 = alloca ptr, align 8
  %4 = alloca i8, align 1
  %5 = alloca ptr, align 8
  %6 = alloca ptr, align 8
  store ptr %0, ptr %3, align 8
  %7 = load ptr, ptr %3, align 8
  %8 = getelementptr inbounds nuw %class.ProfileModel, ptr %7, i32 0, i32 6
  %9 = load i8, ptr %8, align 8, !range !7, !noundef !8
  %10 = trunc i8 %9 to i1
  br i1 %10, label %11, label %12

11:                                               ; preds = %1
  store i1 true, ptr %2, align 1
  br label %68

12:                                               ; preds = %1
  %13 = call ptr @edited_profile_list()
  %14 = call i32 @g_list_length(ptr noundef %13)
  %15 = call ptr @current_profile_list()
  %16 = call i32 @g_list_length(ptr noundef %15)
  %17 = icmp ne i32 %14, %16
  br i1 %17, label %18, label %19

18:                                               ; preds = %12
  store i1 true, ptr %2, align 1
  br label %68

19:                                               ; preds = %12
  call void @llvm.lifetime.start.p0(i64 1, ptr %4) #1
  store i8 0, ptr %4, align 1
  call void @llvm.lifetime.start.p0(i64 8, ptr %5) #1
  %20 = call ptr @edited_profile_list()
  store ptr %20, ptr %5, align 8
  br label %21

21:                                               ; preds = %63, %19
  %22 = load ptr, ptr %5, align 8
  %23 = icmp ne ptr %22, null
  br i1 %23, label %24, label %33

24:                                               ; preds = %21
  %25 = load ptr, ptr %5, align 8
  %26 = getelementptr inbounds nuw %struct._GList, ptr %25, i32 0, i32 0
  %27 = load ptr, ptr %26, align 8
  %28 = icmp ne ptr %27, null
  br i1 %28, label %29, label %33

29:                                               ; preds = %24
  %30 = load i8, ptr %4, align 1, !range !7, !noundef !8
  %31 = trunc i8 %30 to i1
  %32 = xor i1 %31, true
  br label %33

33:                                               ; preds = %29, %24, %21
  %34 = phi i1 [ false, %24 ], [ false, %21 ], [ %32, %29 ]
  br i1 %34, label %35, label %65

35:                                               ; preds = %33
  call void @llvm.lifetime.start.p0(i64 8, ptr %6) #1
  %36 = load ptr, ptr %5, align 8
  %37 = getelementptr inbounds nuw %struct._GList, ptr %36, i32 0, i32 0
  %38 = load ptr, ptr %37, align 8
  store ptr %38, ptr %6, align 8
  %39 = load ptr, ptr %6, align 8
  %40 = getelementptr inbounds nuw %struct.profile_def, ptr %39, i32 0, i32 2
  %41 = load i32, ptr %40, align 8
  %42 = icmp eq i32 %41, 3
  br i1 %42, label %53, label %43

43:                                               ; preds = %35
  %44 = load ptr, ptr %6, align 8
  %45 = getelementptr inbounds nuw %struct.profile_def, ptr %44, i32 0, i32 2
  %46 = load i32, ptr %45, align 8
  %47 = icmp eq i32 %46, 4
  br i1 %47, label %53, label %48

48:                                               ; preds = %43
  %49 = load ptr, ptr %6, align 8
  %50 = getelementptr inbounds nuw %struct.profile_def, ptr %49, i32 0, i32 2
  %51 = load i32, ptr %50, align 8
  %52 = icmp eq i32 %51, 5
  br label %53

53:                                               ; preds = %48, %43, %35
  %54 = phi i1 [ true, %43 ], [ true, %35 ], [ %52, %48 ]
  %55 = zext i1 %54 to i8
  store i8 %55, ptr %4, align 1
  %56 = load ptr, ptr %5, align 8
  %57 = icmp ne ptr %56, null
  br i1 %57, label %58, label %62

58:                                               ; preds = %53
  %59 = load ptr, ptr %5, align 8
  %60 = getelementptr inbounds nuw %struct._GList, ptr %59, i32 0, i32 1
  %61 = load ptr, ptr %60, align 8
  br label %63

62:                                               ; preds = %53
  br label %63

63:                                               ; preds = %62, %58
  %64 = phi ptr [ %61, %58 ], [ null, %62 ]
  store ptr %64, ptr %5, align 8
  call void @llvm.lifetime.end.p0(i64 8, ptr %6) #1
  br label %21, !llvm.loop !13

65:                                               ; preds = %33
  %66 = load i8, ptr %4, align 1, !range !7, !noundef !8
  %67 = trunc i8 %66 to i1
  store i1 %67, ptr %2, align 1
  call void @llvm.lifetime.end.p0(i64 8, ptr %5) #1
  call void @llvm.lifetime.end.p0(i64 1, ptr %4) #1
  br label %68

68:                                               ; preds = %65, %18, %11
  %69 = load i1, ptr %2, align 1
  ret i1 %69
}