; Function Attrs: mustprogress null_pointer_is_valid sspstrong uwtable
define noundef zeroext i1 @_ZNK12ProfileModel14changesPendingEv(ptr noundef readonly align 8 captures(none) dereferenceable_or_null(104) %0) local_unnamed_addr #0 align 2 {
  %2 = getelementptr inbounds nuw i8, ptr %0, i64 96
  %3 = load i8, ptr %2, align 8, !range !58, !noundef !59
  %4 = trunc nuw i8 %3 to i1
  br i1 %4, label %.critedge, label %5

5:                                                ; preds = %1
  %6 = tail call ptr @edited_profile_list()
  %7 = tail call i32 @g_list_length(ptr noundef %6)
  %8 = tail call ptr @current_profile_list()
  %9 = tail call i32 @g_list_length(ptr noundef %8)
  %.not = icmp eq i32 %7, %9
  br i1 %.not, label %10, label %.critedge

10:                                               ; preds = %5
  %11 = tail call ptr @edited_profile_list()
  %.not1719 = icmp eq ptr %11, null
  br i1 %.not1719, label %.critedge, label %.lr.ph

.lr.ph:                                           ; preds = %10, %switch.edge
  %.01321 = phi ptr [ %17, %switch.edge ], [ %11, %10 ]
  %.01420 = phi i1 [ %switch, %switch.edge ], [ false, %10 ]
  %12 = load ptr, ptr %.01321, align 8
  %13 = icmp eq ptr %12, null
  %or.cond.not = or i1 %.01420, %13
  br i1 %or.cond.not, label %.critedge, label %switch.edge

switch.edge:                                      ; preds = %.lr.ph
  %14 = getelementptr inbounds nuw i8, ptr %12, i64 16
  %15 = load i32, ptr %14, align 8
  %.off = add i32 %15, -3
  %switch = icmp ult i32 %.off, 3
  %16 = getelementptr inbounds nuw i8, ptr %.01321, i64 8
  %17 = load ptr, ptr %16, align 8
  %.not17 = icmp eq ptr %17, null
  br i1 %.not17, label %.critedge, label %.lr.ph, !llvm.loop !60

.critedge:                                        ; preds = %.lr.ph, %switch.edge, %10, %5, %1
  %.0 = phi i1 [ true, %1 ], [ true, %5 ], [ false, %10 ], [ %.01420, %.lr.ph ], [ %switch, %switch.edge ]
  ret i1 %.0
}